; Function Attrs: mustprogress nounwind uwtable
define hidden { ptr, i32 } @_ZN4llvm16DAGTypeLegalizer22ExpandIntOp_VP_STRIDEDEPNS_6SDNodeEj(ptr noundef nonnull align 8 dereferenceable(2512) %0, ptr noundef %1, i32 noundef %2) local_unnamed_addr #0 align 2 {
  %4 = alloca %"class.llvm::SDValue", align 8
  %5 = alloca %"class.llvm::SmallVector.97", align 8
  store ptr null, ptr %4, align 8
  %6 = getelementptr inbounds nuw i8, ptr %4, i64 8
  store i32 0, ptr %6, align 8
  %7 = getelementptr inbounds nuw i8, ptr %1, i64 40
  %8 = load ptr, ptr %7, align 8
  %9 = getelementptr inbounds nuw i8, ptr %1, i64 64
  %10 = load i16, ptr %9, align 8
  %11 = zext i16 %10 to i64
  %12 = getelementptr inbounds i8, ptr %5, i64 16
  call void @_ZN4llvm15SmallVectorBaseIjEC2EPvm(ptr noundef nonnull align 8 dereferenceable(16) %5, ptr noundef nonnull %12, i64 noundef 8) #17
  %13 = getelementptr inbounds %"class.llvm::SDUse", ptr %8, i64 %11
  call void @_ZN4llvm15SmallVectorImplINS_7SDValueEE6appendIPKNS_5SDUseEvEEvT_S7_(ptr noundef nonnull align 8 dereferenceable(16) %5, ptr noundef %8, ptr noundef %13)
  %14 = zext i32 %2 to i64
  %15 = load ptr, ptr %5, align 8
  %16 = getelementptr inbounds %"class.llvm::SDValue", ptr %15, i64 %14
  %.sroa.0.0.copyload = load ptr, ptr %16, align 8
  %.sroa.2.0..sroa_idx = getelementptr inbounds i8, ptr %16, i64 8
  %.sroa.2.0.copyload = load i32, ptr %.sroa.2.0..sroa_idx, align 8
  call void @_ZN4llvm16DAGTypeLegalizer18GetExpandedIntegerENS_7SDValueERS1_S2_(ptr noundef nonnull align 8 dereferenceable(2512) %0, ptr %.sroa.0.0.copyload, i32 %.sroa.2.0.copyload, ptr noundef nonnull align 8 dereferenceable(12) %16, ptr noundef nonnull align 8 dereferenceable(12) %4) #17
  %17 = getelementptr inbounds nuw i8, ptr %0, i64 8
  %18 = load ptr, ptr %17, align 8
  %19 = load ptr, ptr %5, align 8
  %20 = call noundef i64 @_ZNK4llvm15SmallVectorBaseIjE4sizeEv(ptr noundef nonnull align 8 dereferenceable(16) %5) #17
  %21 = call noundef ptr @_ZN4llvm12SelectionDAG18UpdateNodeOperandsEPNS_6SDNodeENS_8ArrayRefINS_7SDValueEEE(ptr noundef nonnull align 8 dereferenceable(904) %18, ptr noundef nonnull %1, ptr %19, i64 %20) #17
  %22 = call noundef i64 @_ZNK4llvm15SmallVectorBaseIjE4sizeEv(ptr noundef nonnull align 8 dereferenceable(16) %5) #17
  %23 = load ptr, ptr %5, align 8
  %24 = icmp eq ptr %23, %12
  br i1 %24, label %_ZN4llvm11SmallVectorINS_7SDValueELj8EED2Ev.exit, label %25

25:                                               ; preds = %3
  call void @free(ptr noundef %23) #17
  br label %_ZN4llvm11SmallVectorINS_7SDValueELj8EED2Ev.exit

_ZN4llvm11SmallVectorINS_7SDValueELj8EED2Ev.exit: ; preds = %3, %25
  %.fca.0.insert = insertvalue { ptr, i32 } poison, ptr %21, 0
  %.fca.1.insert = insertvalue { ptr, i32 } %.fca.0.insert, i32 0, 1
  ret { ptr, i32 } %.fca.1.insert
}